target datalayout = "e-m:e-p270:32:32-p271:32:32-p272:64:64-i64:64-i128:128-f80:128-n8:16:32:64-S128"
target triple = "x86_64-pc-linux-gnu"

%struct.dynamic_symbol_counts = type { i64, i64 }
%struct.obj_itr = type { ptr, ptr }

@count_symbols.rbimpl_id = internal global i64 0, align 8
@.str.73 = private unnamed_addr constant [22 x i8] c"mortal_dynamic_symbol\00", align 1
@count_symbols.rbimpl_id.74 = internal global i64 0, align 8
@.str.75 = private unnamed_addr constant [24 x i8] c"immortal_dynamic_symbol\00", align 1
@count_symbols.rbimpl_id.76 = internal global i64 0, align 8
@.str.77 = private unnamed_addr constant [23 x i8] c"immortal_static_symbol\00", align 1
@count_symbols.rbimpl_id.78 = internal global i64 0, align 8
@.str.79 = private unnamed_addr constant [16 x i8] c"immortal_symbol\00", align 1

; Function Attrs: inlinehint nounwind sspstrong willreturn memory(none) uwtable
define internal i64 @RB_INT2FIX(i64 noundef %0) #4 {
  %2 = alloca i64, align 8
  %3 = alloca i64, align 8
  %4 = alloca i64, align 8
  %5 = alloca i64, align 8
  %6 = alloca i64, align 8
  %7 = alloca i64, align 8
  store i64 %0, ptr %2, align 8, !tbaa !6
  call void @llvm.lifetime.start.p0(i64 8, ptr %3) #15
  %8 = load i64, ptr %2, align 8, !tbaa !6
  store i64 %8, ptr %3, align 8, !tbaa !6
  call void @llvm.lifetime.start.p0(i64 8, ptr %4) #15
  %9 = load i64, ptr %3, align 8, !tbaa !6
  %10 = shl i64 %9, 1
  %11 = add i64 %10, 1
  store i64 %11, ptr %4, align 8, !tbaa !6
  call void @llvm.lifetime.start.p0(i64 8, ptr %5) #15
  %12 = load i64, ptr %4, align 8, !tbaa !6
  store i64 %12, ptr %5, align 8, !tbaa !6
  call void @llvm.lifetime.start.p0(i64 8, ptr %6) #15
  %13 = load i64, ptr %5, align 8, !tbaa !6
  store i64 %13, ptr %6, align 8, !tbaa !6
  call void @llvm.lifetime.start.p0(i64 8, ptr %7) #15
  %14 = load i64, ptr %6, align 8, !tbaa !6
  store i64 %14, ptr %7, align 8, !tbaa !6
  %15 = load i64, ptr %7, align 8, !tbaa !6
  call void @llvm.lifetime.end.p0(i64 8, ptr %7) #15
  call void @llvm.lifetime.end.p0(i64 8, ptr %6) #15
  call void @llvm.lifetime.end.p0(i64 8, ptr %5) #15
  call void @llvm.lifetime.end.p0(i64 8, ptr %4) #15
  call void @llvm.lifetime.end.p0(i64 8, ptr %3) #15
  ret i64 %15
}

; Function Attrs: inlinehint nounwind sspstrong willreturn memory(read) uwtable
define internal i64 @rb_intern_const(ptr noundef nonnull %0) #9 {
  %2 = alloca ptr, align 8
  %3 = alloca i64, align 8
  store ptr %0, ptr %2, align 8, !tbaa !39
  call void @llvm.lifetime.start.p0(i64 8, ptr %3) #15
  %4 = load ptr, ptr %2, align 8, !tbaa !39
  %5 = call i64 @strlen(ptr noundef %4) #17
  store i64 %5, ptr %3, align 8, !tbaa !6
  %6 = load ptr, ptr %2, align 8, !tbaa !39
  %7 = load i64, ptr %3, align 8, !tbaa !6
  %8 = call i64 @rb_intern2(ptr noundef %6, i64 noundef %7)
  call void @llvm.lifetime.end.p0(i64 8, ptr %3) #15
  ret i64 %8
}

; Function Attrs: inlinehint nounwind sspstrong uwtable
define internal i64 @rb_ull2num_inline(i64 noundef %0) #3 {
  %2 = alloca i64, align 8
  %3 = alloca i64, align 8
  store i64 %0, ptr %3, align 8, !tbaa !33
  %4 = load i64, ptr %3, align 8, !tbaa !33
  %5 = icmp ult i64 %4, 4611686018427387904
  br i1 %5, label %6, label %9

6:                                                ; preds = %1
  %7 = load i64, ptr %3, align 8, !tbaa !33
  %8 = call i64 @RB_INT2FIX(i64 noundef %7) #18
  store i64 %8, ptr %2, align 8
  br label %12

9:                                                ; preds = %1
  %10 = load i64, ptr %3, align 8, !tbaa !33
  %11 = call i64 @rb_ull2inum(i64 noundef %10)
  store i64 %11, ptr %2, align 8
  br label %12

12:                                               ; preds = %9, %6
  %13 = load i64, ptr %2, align 8
  ret i64 %13
}

; Function Attrs: inlinehint nounwind sspstrong memory(argmem: readwrite, inaccessiblemem: readwrite) uwtable
define internal i64 @rbimpl_intern_const(ptr noundef nonnull %0, ptr noundef nonnull %1) #10 {
  %3 = alloca ptr, align 8
  %4 = alloca ptr, align 8
  store ptr %0, ptr %3, align 8, !tbaa !12
  store ptr %1, ptr %4, align 8, !tbaa !39
  br label %5

5:                                                ; preds = %10, %2
  %6 = load ptr, ptr %3, align 8, !tbaa !12
  %7 = load i64, ptr %6, align 8, !tbaa !6
  %8 = icmp ne i64 %7, 0
  %9 = xor i1 %8, true
  br i1 %9, label %10, label %14

10:                                               ; preds = %5
  %11 = load ptr, ptr %4, align 8, !tbaa !39
  %12 = call i64 @rb_intern_const(ptr noundef %11) #17
  %13 = load ptr, ptr %3, align 8, !tbaa !12
  store i64 %12, ptr %13, align 8, !tbaa !6
  br label %5, !llvm.loop !57

14:                                               ; preds = %5
  %15 = load ptr, ptr %3, align 8, !tbaa !12
  %16 = load i64, ptr %15, align 8, !tbaa !6
  ret i64 %16
}

; Function Attrs: nounwind sspstrong uwtable
define internal void @each_object_with_flags(ptr noundef %0, ptr noundef %1) #0 {
  %3 = alloca ptr, align 8
  %4 = alloca ptr, align 8
  %5 = alloca %struct.obj_itr, align 8
  store ptr %0, ptr %3, align 8, !tbaa !46
  store ptr %1, ptr %4, align 8, !tbaa !46
  call void @llvm.lifetime.start.p0(i64 16, ptr %5) #15
  %6 = load ptr, ptr %3, align 8, !tbaa !46
  %7 = getelementptr inbounds nuw %struct.obj_itr, ptr %5, i32 0, i32 0
  store ptr %6, ptr %7, align 8, !tbaa !47
  %8 = load ptr, ptr %4, align 8, !tbaa !46
  %9 = getelementptr inbounds nuw %struct.obj_itr, ptr %5, i32 0, i32 1
  store ptr %8, ptr %9, align 8, !tbaa !49
  call void @rb_objspace_each_objects(ptr noundef @heap_iter, ptr noundef %5)
  call void @llvm.lifetime.end.p0(i64 16, ptr %5) #15
  ret void
}

; Function Attrs: nounwind sspstrong uwtable
define internal i64 @count_symbols(i32 noundef %0, ptr noundef %1, i64 noundef %2) #0 {
  %4 = alloca i32, align 4
  %5 = alloca ptr, align 8
  %6 = alloca i64, align 8
  %7 = alloca %struct.dynamic_symbol_counts, align 8
  %8 = alloca i64, align 8
  %9 = alloca i64, align 8
  %10 = alloca i64, align 8
  %11 = alloca i64, align 8
  %12 = alloca i64, align 8
  %13 = alloca i64, align 8
  %14 = alloca i64, align 8
  %15 = alloca i64, align 8
  %16 = alloca i64, align 8
  %17 = alloca i64, align 8
  store i32 %0, ptr %4, align 4, !tbaa !10
  store ptr %1, ptr %5, align 8, !tbaa !12
  store i64 %2, ptr %6, align 8, !tbaa !6
  call void @llvm.lifetime.start.p0(i64 16, ptr %7) #15
  call void @llvm.memset.p0.i64(ptr align 8 %7, i8 0, i64 16, i1 false)
  call void @llvm.lifetime.start.p0(i64 8, ptr %8) #15
  %18 = load i32, ptr %4, align 4, !tbaa !10
  %19 = load ptr, ptr %5, align 8, !tbaa !12
  %20 = call i64 @setup_hash(i32 noundef %18, ptr noundef %19)
  store i64 %20, ptr %8, align 8, !tbaa !6
  call void @llvm.lifetime.start.p0(i64 8, ptr %9) #15
  %21 = call i64 @rb_sym_immortal_count()
  store i64 %21, ptr %9, align 8, !tbaa !6
  call void @each_object_with_flags(ptr noundef @cs_i, ptr noundef %7)
  %22 = load i64, ptr %8, align 8, !tbaa !6
  %23 = call i64 @rbimpl_intern_const(ptr noundef @count_symbols.rbimpl_id, ptr noundef @.str.73) #16
  store i64 %23, ptr %11, align 8, !tbaa !6
  %24 = load i64, ptr %11, align 8, !tbaa !6
  %25 = call i64 @rb_id2sym(i64 noundef %24)
  store i64 %25, ptr %10, align 8, !tbaa !6
  %26 = load i64, ptr %10, align 8, !tbaa !6
  %27 = getelementptr inbounds nuw %struct.dynamic_symbol_counts, ptr %7, i32 0, i32 0
  %28 = load i64, ptr %27, align 8, !tbaa !20
  %29 = call i64 @rb_ull2num_inline(i64 noundef %28)
  %30 = call i64 @rb_hash_aset(i64 noundef %22, i64 noundef %26, i64 noundef %29)
  %31 = load i64, ptr %8, align 8, !tbaa !6
  %32 = call i64 @rbimpl_intern_const(ptr noundef @count_symbols.rbimpl_id.74, ptr noundef @.str.75) #16
  store i64 %32, ptr %13, align 8, !tbaa !6
  %33 = load i64, ptr %13, align 8, !tbaa !6
  %34 = call i64 @rb_id2sym(i64 noundef %33)
  store i64 %34, ptr %12, align 8, !tbaa !6
  %35 = load i64, ptr %12, align 8, !tbaa !6
  %36 = getelementptr inbounds nuw %struct.dynamic_symbol_counts, ptr %7, i32 0, i32 1
  %37 = load i64, ptr %36, align 8, !tbaa !22
  %38 = call i64 @rb_ull2num_inline(i64 noundef %37)
  %39 = call i64 @rb_hash_aset(i64 noundef %31, i64 noundef %35, i64 noundef %38)
  %40 = load i64, ptr %8, align 8, !tbaa !6
  %41 = call i64 @rbimpl_intern_const(ptr noundef @count_symbols.rbimpl_id.76, ptr noundef @.str.77) #16
  store i64 %41, ptr %15, align 8, !tbaa !6
  %42 = load i64, ptr %15, align 8, !tbaa !6
  %43 = call i64 @rb_id2sym(i64 noundef %42)
  store i64 %43, ptr %14, align 8, !tbaa !6
  %44 = load i64, ptr %14, align 8, !tbaa !6
  %45 = load i64, ptr %9, align 8, !tbaa !6
  %46 = getelementptr inbounds nuw %struct.dynamic_symbol_counts, ptr %7, i32 0, i32 1
  %47 = load i64, ptr %46, align 8, !tbaa !22
  %48 = sub i64 %45, %47
  %49 = call i64 @rb_ull2num_inline(i64 noundef %48)
  %50 = call i64 @rb_hash_aset(i64 noundef %40, i64 noundef %44, i64 noundef %49)
  %51 = load i64, ptr %8, align 8, !tbaa !6
  %52 = call i64 @rbimpl_intern_const(ptr noundef @count_symbols.rbimpl_id.78, ptr noundef @.str.79) #16
  store i64 %52, ptr %17, align 8, !tbaa !6
  %53 = load i64, ptr %17, align 8, !tbaa !6
  %54 = call i64 @rb_id2sym(i64 noundef %53)
  store i64 %54, ptr %16, align 8, !tbaa !6
  %55 = load i64, ptr %16, align 8, !tbaa !6
  %56 = load i64, ptr %9, align 8, !tbaa !6
  %57 = call i64 @rb_ull2num_inline(i64 noundef %56)
  %58 = call i64 @rb_hash_aset(i64 noundef %51, i64 noundef %55, i64 noundef %57)
  %59 = load i64, ptr %8, align 8, !tbaa !6
  call void @llvm.lifetime.end.p0(i64 8, ptr %9) #15
  call void @llvm.lifetime.end.p0(i64 8, ptr %8) #15
  call void @llvm.lifetime.end.p0(i64 16, ptr %7) #15
  ret i64 %59
}