; Function Attrs: nounwind sspstrong uwtable
define internal i64 @count_symbols(i32 noundef %0, ptr noundef readonly captures(none) %1, i64 %2) #0 {
  %4 = alloca %struct.obj_itr, align 8
  %5 = alloca %struct.dynamic_symbol_counts, align 8
  call void @llvm.lifetime.start.p0(i64 16, ptr nonnull %5) #7
  call void @llvm.memset.p0.i64(ptr noundef nonnull align 8 dereferenceable(16) %5, i8 0, i64 16, i1 false)
  %6 = tail call fastcc i64 @setup_hash(i32 noundef %0, ptr noundef %1)
  %7 = tail call i64 @rb_sym_immortal_count() #7
  call void @llvm.lifetime.start.p0(i64 16, ptr nonnull %4) #7
  store ptr @cs_i, ptr %4, align 8, !tbaa !10
  %8 = getelementptr inbounds nuw i8, ptr %4, i64 8
  store ptr %5, ptr %8, align 8, !tbaa !13
  call void @rb_objspace_each_objects(ptr noundef nonnull @heap_iter, ptr noundef nonnull %4) #7
  call void @llvm.lifetime.end.p0(i64 16, ptr nonnull %4) #7
  %.pr.i = load i64, ptr @count_symbols.rbimpl_id, align 8, !tbaa !6
  %.not4.i = icmp eq i64 %.pr.i, 0
  br i1 %.not4.i, label %.lr.ph.i, label %rbimpl_intern_const.exit

.lr.ph.i:                                         ; preds = %3, %.lr.ph.i
  %9 = call i64 @rb_intern2(ptr noundef nonnull @.str.73, i64 noundef 21) #7
  store i64 %9, ptr @count_symbols.rbimpl_id, align 8, !tbaa !6
  %.not.i = icmp eq i64 %9, 0
  br i1 %.not.i, label %.lr.ph.i, label %rbimpl_intern_const.exit, !llvm.loop !18

rbimpl_intern_const.exit:                         ; preds = %.lr.ph.i, %3
  %.lcssa.i = phi i64 [ %.pr.i, %3 ], [ %9, %.lr.ph.i ]
  %10 = call i64 @rb_id2sym(i64 noundef %.lcssa.i) #7
  %11 = load i64, ptr %5, align 8, !tbaa !19
  %12 = icmp ult i64 %11, 4611686018427387904
  br i1 %12, label %13, label %16

13:                                               ; preds = %rbimpl_intern_const.exit
  %14 = shl nuw nsw i64 %11, 1
  %15 = or disjoint i64 %14, 1
  br label %rb_ull2num_inline.exit

16:                                               ; preds = %rbimpl_intern_const.exit
  %17 = call i64 @rb_ull2inum(i64 noundef %11) #7
  br label %rb_ull2num_inline.exit

rb_ull2num_inline.exit:                           ; preds = %13, %16
  %.0.i = phi i64 [ %15, %13 ], [ %17, %16 ]
  %18 = call i64 @rb_hash_aset(i64 noundef %6, i64 noundef %10, i64 noundef %.0.i) #7
  %.pr.i16 = load i64, ptr @count_symbols.rbimpl_id.74, align 8, !tbaa !6
  %.not4.i17 = icmp eq i64 %.pr.i16, 0
  br i1 %.not4.i17, label %.lr.ph.i19, label %rbimpl_intern_const.exit21

.lr.ph.i19:                                       ; preds = %rb_ull2num_inline.exit, %.lr.ph.i19
  %19 = call i64 @rb_intern2(ptr noundef nonnull @.str.75, i64 noundef 23) #7
  store i64 %19, ptr @count_symbols.rbimpl_id.74, align 8, !tbaa !6
  %.not.i20 = icmp eq i64 %19, 0
  br i1 %.not.i20, label %.lr.ph.i19, label %rbimpl_intern_const.exit21, !llvm.loop !18

rbimpl_intern_const.exit21:                       ; preds = %.lr.ph.i19, %rb_ull2num_inline.exit
  %.lcssa.i18 = phi i64 [ %.pr.i16, %rb_ull2num_inline.exit ], [ %19, %.lr.ph.i19 ]
  %20 = call i64 @rb_id2sym(i64 noundef %.lcssa.i18) #7
  %21 = getelementptr inbounds nuw i8, ptr %5, i64 8
  %22 = load i64, ptr %21, align 8, !tbaa !21
  %23 = icmp ult i64 %22, 4611686018427387904
  br i1 %23, label %24, label %27

24:                                               ; preds = %rbimpl_intern_const.exit21
  %25 = shl nuw nsw i64 %22, 1
  %26 = or disjoint i64 %25, 1
  br label %rb_ull2num_inline.exit23

27:                                               ; preds = %rbimpl_intern_const.exit21
  %28 = call i64 @rb_ull2inum(i64 noundef %22) #7
  br label %rb_ull2num_inline.exit23

rb_ull2num_inline.exit23:                         ; preds = %24, %27
  %.0.i22 = phi i64 [ %26, %24 ], [ %28, %27 ]
  %29 = call i64 @rb_hash_aset(i64 noundef %6, i64 noundef %20, i64 noundef %.0.i22) #7
  %.pr.i24 = load i64, ptr @count_symbols.rbimpl_id.76, align 8, !tbaa !6
  %.not4.i25 = icmp eq i64 %.pr.i24, 0
  br i1 %.not4.i25, label %.lr.ph.i27, label %rbimpl_intern_const.exit29

.lr.ph.i27:                                       ; preds = %rb_ull2num_inline.exit23, %.lr.ph.i27
  %30 = call i64 @rb_intern2(ptr noundef nonnull @.str.77, i64 noundef 22) #7
  store i64 %30, ptr @count_symbols.rbimpl_id.76, align 8, !tbaa !6
  %.not.i28 = icmp eq i64 %30, 0
  br i1 %.not.i28, label %.lr.ph.i27, label %rbimpl_intern_const.exit29, !llvm.loop !18

rbimpl_intern_const.exit29:                       ; preds = %.lr.ph.i27, %rb_ull2num_inline.exit23
  %.lcssa.i26 = phi i64 [ %.pr.i24, %rb_ull2num_inline.exit23 ], [ %30, %.lr.ph.i27 ]
  %31 = call i64 @rb_id2sym(i64 noundef %.lcssa.i26) #7
  %32 = load i64, ptr %21, align 8, !tbaa !21
  %33 = sub i64 %7, %32
  %34 = icmp ult i64 %33, 4611686018427387904
  br i1 %34, label %35, label %38

35:                                               ; preds = %rbimpl_intern_const.exit29
  %36 = shl nuw nsw i64 %33, 1
  %37 = or disjoint i64 %36, 1
  br label %rb_ull2num_inline.exit31

38:                                               ; preds = %rbimpl_intern_const.exit29
  %39 = call i64 @rb_ull2inum(i64 noundef %33) #7
  br label %rb_ull2num_inline.exit31

rb_ull2num_inline.exit31:                         ; preds = %35, %38
  %.0.i30 = phi i64 [ %37, %35 ], [ %39, %38 ]
  %40 = call i64 @rb_hash_aset(i64 noundef %6, i64 noundef %31, i64 noundef %.0.i30) #7
  %.pr.i32 = load i64, ptr @count_symbols.rbimpl_id.78, align 8, !tbaa !6
  %.not4.i33 = icmp eq i64 %.pr.i32, 0
  br i1 %.not4.i33, label %.lr.ph.i35, label %rbimpl_intern_const.exit37

.lr.ph.i35:                                       ; preds = %rb_ull2num_inline.exit31, %.lr.ph.i35
  %41 = call i64 @rb_intern2(ptr noundef nonnull @.str.79, i64 noundef 15) #7
  store i64 %41, ptr @count_symbols.rbimpl_id.78, align 8, !tbaa !6
  %.not.i36 = icmp eq i64 %41, 0
  br i1 %.not.i36, label %.lr.ph.i35, label %rbimpl_intern_const.exit37, !llvm.loop !18

rbimpl_intern_const.exit37:                       ; preds = %.lr.ph.i35, %rb_ull2num_inline.exit31
  %.lcssa.i34 = phi i64 [ %.pr.i32, %rb_ull2num_inline.exit31 ], [ %41, %.lr.ph.i35 ]
  %42 = call i64 @rb_id2sym(i64 noundef %.lcssa.i34) #7
  %43 = icmp ult i64 %7, 4611686018427387904
  br i1 %43, label %44, label %47

44:                                               ; preds = %rbimpl_intern_const.exit37
  %45 = shl nuw nsw i64 %7, 1
  %46 = or disjoint i64 %45, 1
  br label %rb_ull2num_inline.exit39

47:                                               ; preds = %rbimpl_intern_const.exit37
  %48 = call i64 @rb_ull2inum(i64 noundef %7) #7
  br label %rb_ull2num_inline.exit39

rb_ull2num_inline.exit39:                         ; preds = %44, %47
  %.0.i38 = phi i64 [ %46, %44 ], [ %48, %47 ]
  %49 = call i64 @rb_hash_aset(i64 noundef %6, i64 noundef %42, i64 noundef %.0.i38) #7
  call void @llvm.lifetime.end.p0(i64 16, ptr nonnull %5) #7
  ret i64 %6
}